target datalayout = "e-m:e-p270:32:32-p271:32:32-p272:64:64-i64:64-i128:128-f80:128-n8:16:32:64-S128"
target triple = "x86_64-pc-linux-gnu"

%struct.lxb_html_parser_t = type { ptr, ptr, ptr, ptr, ptr, i32, i32, i64 }
%struct.lxb_html_tree = type { ptr, ptr, ptr, ptr, ptr, ptr, ptr, %struct.lxb_html_tree_pending_table_t, ptr, i8, i8, i8, i8, i8, i8, ptr, ptr, ptr, i32, i64 }
%struct.lxb_html_tree_pending_table_t = type { ptr, i8 }
%struct.lxb_html_document = type { %struct.lxb_dom_document, ptr, ptr, ptr, %struct.lxb_html_document_css_t, i8, ptr, i32, i32 }
%struct.lxb_dom_document = type { %struct.lxb_dom_node, i32, i32, ptr, ptr, ptr, ptr, ptr, ptr, ptr, ptr, ptr, ptr, ptr, ptr, ptr, ptr, ptr, ptr, ptr, i8, i8, i8 }
%struct.lxb_dom_node = type { %struct.lxb_dom_event_target, i64, i64, i64, ptr, ptr, ptr, ptr, ptr, ptr, ptr, i32, i64 }
%struct.lxb_dom_event_target = type { ptr }
%struct.lxb_html_document_css_t = type { ptr, ptr, ptr, ptr, ptr, ptr, ptr, ptr, i64 }
%struct.lxb_html_tokenizer = type { ptr, ptr, ptr, ptr, ptr, ptr, ptr, ptr, ptr, ptr, ptr, ptr, ptr, ptr, ptr, i64, ptr, ptr, ptr, ptr, ptr, i64, i64, ptr, ptr, i64, i64, i32, i32, i8, i32, i32, i8, ptr, i64 }

; Function Attrs: nounwind uwtable
define internal void @lxb_html_tokenizer_tree_set(ptr noundef %0, ptr noundef %1) #0 {
  %3 = alloca ptr, align 8
  %4 = alloca ptr, align 8
  store ptr %0, ptr %3, align 8
  store ptr %1, ptr %4, align 8
  %5 = load ptr, ptr %4, align 8
  %6 = load ptr, ptr %3, align 8
  %7 = getelementptr inbounds %struct.lxb_html_tokenizer, ptr %6, i32 0, i32 12
  store ptr %5, ptr %7, align 8
  ret void
}

; Function Attrs: nounwind uwtable
define internal i32 @lxb_html_tree_end(ptr noundef %0) #0 {
  %2 = alloca ptr, align 8
  store ptr %0, ptr %2, align 8
  %3 = load ptr, ptr %2, align 8
  %4 = getelementptr inbounds %struct.lxb_html_tree, ptr %3, i32 0, i32 1
  %5 = load ptr, ptr %4, align 8
  %6 = getelementptr inbounds %struct.lxb_html_document, ptr %5, i32 0, i32 6
  %7 = load ptr, ptr %6, align 8
  %8 = icmp ne ptr %7, null
  br i1 %8, label %9, label %19

9:                                                ; preds = %1
  %10 = load ptr, ptr %2, align 8
  %11 = getelementptr inbounds %struct.lxb_html_tree, ptr %10, i32 0, i32 1
  %12 = load ptr, ptr %11, align 8
  %13 = getelementptr inbounds %struct.lxb_html_document, ptr %12, i32 0, i32 6
  %14 = load ptr, ptr %13, align 8
  %15 = load ptr, ptr %2, align 8
  %16 = getelementptr inbounds %struct.lxb_html_tree, ptr %15, i32 0, i32 1
  %17 = load ptr, ptr %16, align 8
  %18 = call i32 %14(ptr noundef %17)
  br label %19

19:                                               ; preds = %9, %1
  %20 = load ptr, ptr %2, align 8
  %21 = getelementptr inbounds %struct.lxb_html_tree, ptr %20, i32 0, i32 0
  %22 = load ptr, ptr %21, align 8
  %23 = call i32 @lxb_html_tokenizer_end(ptr noundef %22)
  ret i32 %23
}

; Function Attrs: nounwind uwtable
define hidden i32 @lxb_html_parse_chunk_end(ptr noundef %0) #0 {
  %2 = alloca i32, align 4
  %3 = alloca ptr, align 8
  store ptr %0, ptr %3, align 8
  %4 = load ptr, ptr %3, align 8
  %5 = getelementptr inbounds %struct.lxb_html_parser_t, ptr %4, i32 0, i32 5
  %6 = load i32, ptr %5, align 8
  %7 = icmp ne i32 %6, 1
  br i1 %7, label %8, label %9

8:                                                ; preds = %1
  store i32 10, ptr %2, align 4
  br label %27

9:                                                ; preds = %1
  %10 = load ptr, ptr %3, align 8
  %11 = getelementptr inbounds %struct.lxb_html_parser_t, ptr %10, i32 0, i32 1
  %12 = load ptr, ptr %11, align 8
  %13 = call i32 @lxb_html_tree_end(ptr noundef %12)
  %14 = load ptr, ptr %3, align 8
  %15 = getelementptr inbounds %struct.lxb_html_parser_t, ptr %14, i32 0, i32 6
  store i32 %13, ptr %15, align 4
  %16 = load ptr, ptr %3, align 8
  %17 = getelementptr inbounds %struct.lxb_html_parser_t, ptr %16, i32 0, i32 0
  %18 = load ptr, ptr %17, align 8
  %19 = load ptr, ptr %3, align 8
  %20 = getelementptr inbounds %struct.lxb_html_parser_t, ptr %19, i32 0, i32 2
  %21 = load ptr, ptr %20, align 8
  call void @lxb_html_tokenizer_tree_set(ptr noundef %18, ptr noundef %21)
  %22 = load ptr, ptr %3, align 8
  %23 = getelementptr inbounds %struct.lxb_html_parser_t, ptr %22, i32 0, i32 5
  store i32 2, ptr %23, align 8
  %24 = load ptr, ptr %3, align 8
  %25 = getelementptr inbounds %struct.lxb_html_parser_t, ptr %24, i32 0, i32 6
  %26 = load i32, ptr %25, align 4
  store i32 %26, ptr %2, align 4
  br label %27

27:                                               ; preds = %9, %8
  %28 = load i32, ptr %2, align 4
  ret i32 %28
}