; Function Attrs: nounwind uwtable
define hidden i32 @lxb_html_parse_chunk_end(ptr nocapture noundef %0) local_unnamed_addr #0 {
  %2 = getelementptr inbounds i8, ptr %0, i64 40
  %3 = load i32, ptr %2, align 8
  %.not = icmp eq i32 %3, 1
  br i1 %.not, label %4, label %21

4:                                                ; preds = %1
  %5 = getelementptr inbounds i8, ptr %0, i64 8
  %6 = load ptr, ptr %5, align 8
  %7 = getelementptr inbounds i8, ptr %6, i64 8
  %8 = load ptr, ptr %7, align 8
  %9 = getelementptr inbounds i8, ptr %8, i64 360
  %10 = load ptr, ptr %9, align 8
  %.not.i = icmp eq ptr %10, null
  br i1 %.not.i, label %lxb_html_tree_end.exit, label %11

11:                                               ; preds = %4
  %12 = tail call i32 %10(ptr noundef nonnull %8) #7
  br label %lxb_html_tree_end.exit

lxb_html_tree_end.exit:                           ; preds = %4, %11
  %13 = load ptr, ptr %6, align 8
  %14 = tail call i32 @lxb_html_tokenizer_end(ptr noundef %13) #7
  %15 = getelementptr inbounds i8, ptr %0, i64 44
  store i32 %14, ptr %15, align 4
  %16 = load ptr, ptr %0, align 8
  %17 = getelementptr inbounds i8, ptr %0, i64 16
  %18 = load ptr, ptr %17, align 8
  %19 = getelementptr inbounds i8, ptr %16, i64 96
  store ptr %18, ptr %19, align 8
  store i32 2, ptr %2, align 8
  %20 = load i32, ptr %15, align 4
  br label %21

21:                                               ; preds = %1, %lxb_html_tree_end.exit
  %.0 = phi i32 [ %20, %lxb_html_tree_end.exit ], [ 10, %1 ]
  ret i32 %.0
}